; Function Attrs: nounwind uwtable
define dso_local ptr @resp_finish(ptr noundef captures(none) %0, ptr noundef captures(address) %1) local_unnamed_addr #1 {
  %3 = getelementptr inbounds nuw i8, ptr %1, i64 8
  %4 = load ptr, ptr %3, align 8, !tbaa !110
  %5 = getelementptr inbounds nuw i8, ptr %1, i64 40
  %6 = load ptr, ptr %5, align 8, !tbaa !111
  %.not = icmp eq ptr %6, null
  br i1 %.not, label %8, label %7

7:                                                ; preds = %2
  tail call void @item_remove(ptr noundef nonnull %6) #34
  store ptr null, ptr %5, align 8, !tbaa !111
  br label %8

8:                                                ; preds = %7, %2
  %9 = getelementptr inbounds nuw i8, ptr %1, i64 24
  %10 = load ptr, ptr %9, align 8, !tbaa !112
  %.not25 = icmp eq ptr %10, null
  br i1 %.not25, label %12, label %11

11:                                               ; preds = %8
  tail call void @free(ptr noundef nonnull %10) #34
  br label %12

12:                                               ; preds = %11, %8
  %13 = getelementptr inbounds nuw i8, ptr %1, i64 32
  %14 = load ptr, ptr %13, align 8, !tbaa !113
  %.not26 = icmp eq ptr %14, null
  br i1 %.not26, label %22, label %15

15:                                               ; preds = %12
  %16 = getelementptr inbounds nuw i8, ptr %14, i64 40
  %17 = load ptr, ptr %16, align 8, !tbaa !114
  tail call void %17(ptr noundef nonnull %14) #34
  %18 = getelementptr inbounds nuw i8, ptr %0, i64 400
  %19 = load ptr, ptr %18, align 8, !tbaa !30
  %20 = getelementptr inbounds nuw i8, ptr %19, i64 6952
  %21 = load ptr, ptr %20, align 8, !tbaa !117
  tail call void @do_cache_free(ptr noundef %21, ptr noundef nonnull %14) #34
  store ptr null, ptr %13, align 8, !tbaa !113
  br label %22

22:                                               ; preds = %15, %12
  %23 = getelementptr inbounds nuw i8, ptr %0, i64 216
  %24 = load ptr, ptr %23, align 8, !tbaa !80
  %25 = icmp eq ptr %24, %1
  br i1 %25, label %26, label %27

26:                                               ; preds = %22
  store ptr %4, ptr %23, align 8, !tbaa !80
  br label %27

27:                                               ; preds = %26, %22
  %28 = getelementptr inbounds nuw i8, ptr %0, i64 208
  %29 = load ptr, ptr %28, align 8, !tbaa !118
  %30 = icmp eq ptr %29, %1
  br i1 %30, label %31, label %32

31:                                               ; preds = %27
  store ptr null, ptr %28, align 8, !tbaa !118
  br label %32

32:                                               ; preds = %31, %27
  %33 = getelementptr inbounds nuw i8, ptr %0, i64 400
  %34 = load ptr, ptr %33, align 8, !tbaa !30
  tail call void @resp_free(ptr noundef %34, ptr noundef nonnull %1)
  ret ptr %4
}